; Function Attrs: nounwind uwtable
define internal fastcc void @X11_DispatchUnmapNotify(ptr noundef nonnull readonly captures(none) %0) unnamed_addr #1 {
  %2 = load ptr, ptr %0, align 8
  %3 = getelementptr inbounds nuw i8, ptr %2, i64 265
  %4 = load i8, ptr %3, align 1, !range !3, !noundef !4
  %5 = trunc nuw i8 %4 to i1
  br i1 %5, label %10, label %6

6:                                                ; preds = %1
  %7 = tail call zeroext i1 @SDL_SendWindowEvent(ptr noundef nonnull %2, i32 noundef 521, i32 noundef 0, i32 noundef 0) #12
  %8 = load ptr, ptr %0, align 8
  %9 = tail call zeroext i1 @SDL_SendWindowEvent(ptr noundef %8, i32 noundef 534, i32 noundef 0, i32 noundef 0) #12
  br label %12

10:                                               ; preds = %1
  %11 = tail call zeroext i1 @SDL_SendWindowEvent(ptr noundef nonnull %2, i32 noundef 515, i32 noundef 0, i32 noundef 0) #12
  br label %12

12:                                               ; preds = %10, %6
  ret void
}